target datalayout = "e-m:e-p270:32:32-p271:32:32-p272:64:64-i64:64-i128:128-f80:128-n8:16:32:64-S128"
target triple = "x86_64-pc-linux-gnu"

%struct.AVFormatContext = type { ptr, ptr, ptr, ptr, ptr, i32, i32, ptr, i32, ptr, i32, ptr, ptr, i64, i64, i64, i32, i32, i32, i64, i64, ptr, i32, i32, ptr, i32, i32, i32, i32, ptr, i64, i32, i32, %struct.AVIOInterruptCB, i32, i32, i32, i32, i64, i32, i32, i32, i32, i32, i32, i32, i32, i32, i32, i32, i32, i64, i32, i32, i32, i32, i32, ptr, ptr, ptr, ptr, i32, ptr, ptr, ptr, ptr, i32, ptr, ptr, i64, ptr, ptr, ptr, i64 }
%struct.AVIOInterruptCB = type { ptr, ptr }
%struct.AVPacket = type { ptr, i64, i64, ptr, i32, i32, i32, ptr, i32, i64, i64, ptr, ptr, %struct.AVRational }
%struct.AVRational = type { i32, i32 }
%struct.RCWTContext = type { i32, i64, [196605 x i8] }

@.str.2 = private unnamed_addr constant [32 x i8] c"Ignoring CC packet with no PTS\0A\00", align 1
@.str.3 = private unnamed_addr constant [34 x i8] c"Starting new cluster due to size\0A\00", align 1

; Function Attrs: nounwind uwtable
define internal void @rcwt_init_cluster(ptr noundef %0) #0 {
  %2 = alloca ptr, align 8
  store ptr %0, ptr %2, align 8, !tbaa !32
  %3 = load ptr, ptr %2, align 8, !tbaa !32
  %4 = getelementptr inbounds nuw %struct.RCWTContext, ptr %3, i32 0, i32 0
  store i32 0, ptr %4, align 8, !tbaa !43
  %5 = load ptr, ptr %2, align 8, !tbaa !32
  %6 = getelementptr inbounds nuw %struct.RCWTContext, ptr %5, i32 0, i32 1
  store i64 -9223372036854775808, ptr %6, align 8, !tbaa !40
  ret void
}

; Function Attrs: nounwind uwtable
define internal void @rcwt_flush_cluster(ptr noundef %0) #0 {
  %2 = alloca ptr, align 8
  %3 = alloca ptr, align 8
  store ptr %0, ptr %2, align 8, !tbaa !4
  call void @llvm.lifetime.start.p0(i64 8, ptr %3) #4
  %4 = load ptr, ptr %2, align 8, !tbaa !4
  %5 = getelementptr inbounds nuw %struct.AVFormatContext, ptr %4, i32 0, i32 3
  %6 = load ptr, ptr %5, align 8, !tbaa !29
  store ptr %6, ptr %3, align 8, !tbaa !32
  %7 = load ptr, ptr %3, align 8, !tbaa !32
  %8 = getelementptr inbounds nuw %struct.RCWTContext, ptr %7, i32 0, i32 0
  %9 = load i32, ptr %8, align 8, !tbaa !43
  %10 = icmp sgt i32 %9, 0
  br i1 %10, label %11, label %34

11:                                               ; preds = %1
  %12 = load ptr, ptr %2, align 8, !tbaa !4
  %13 = getelementptr inbounds nuw %struct.AVFormatContext, ptr %12, i32 0, i32 4
  %14 = load ptr, ptr %13, align 8, !tbaa !28
  %15 = load ptr, ptr %3, align 8, !tbaa !32
  %16 = getelementptr inbounds nuw %struct.RCWTContext, ptr %15, i32 0, i32 1
  %17 = load i64, ptr %16, align 8, !tbaa !40
  call void @avio_wl64(ptr noundef %14, i64 noundef %17)
  %18 = load ptr, ptr %2, align 8, !tbaa !4
  %19 = getelementptr inbounds nuw %struct.AVFormatContext, ptr %18, i32 0, i32 4
  %20 = load ptr, ptr %19, align 8, !tbaa !28
  %21 = load ptr, ptr %3, align 8, !tbaa !32
  %22 = getelementptr inbounds nuw %struct.RCWTContext, ptr %21, i32 0, i32 0
  %23 = load i32, ptr %22, align 8, !tbaa !43
  %24 = sdiv i32 %23, 3
  call void @avio_wl16(ptr noundef %20, i32 noundef %24)
  %25 = load ptr, ptr %2, align 8, !tbaa !4
  %26 = getelementptr inbounds nuw %struct.AVFormatContext, ptr %25, i32 0, i32 4
  %27 = load ptr, ptr %26, align 8, !tbaa !28
  %28 = load ptr, ptr %3, align 8, !tbaa !32
  %29 = getelementptr inbounds nuw %struct.RCWTContext, ptr %28, i32 0, i32 2
  %30 = getelementptr inbounds [196605 x i8], ptr %29, i64 0, i64 0
  %31 = load ptr, ptr %3, align 8, !tbaa !32
  %32 = getelementptr inbounds nuw %struct.RCWTContext, ptr %31, i32 0, i32 0
  %33 = load i32, ptr %32, align 8, !tbaa !43
  call void @avio_write(ptr noundef %27, ptr noundef %30, i32 noundef %33)
  br label %34

34:                                               ; preds = %11, %1
  %35 = load ptr, ptr %3, align 8, !tbaa !32
  call void @rcwt_init_cluster(ptr noundef %35)
  call void @llvm.lifetime.end.p0(i64 8, ptr %3) #4
  ret void
}

; Function Attrs: nounwind uwtable
define internal i32 @rcwt_write_packet(ptr noundef %0, ptr noundef %1) #0 {
  %3 = alloca i32, align 4
  %4 = alloca ptr, align 8
  %5 = alloca ptr, align 8
  %6 = alloca ptr, align 8
  %7 = alloca i32, align 4
  %8 = alloca i32, align 4
  %9 = alloca i8, align 1
  %10 = alloca i8, align 1
  store ptr %0, ptr %4, align 8, !tbaa !4
  store ptr %1, ptr %5, align 8, !tbaa !30
  call void @llvm.lifetime.start.p0(i64 8, ptr %6) #4
  %11 = load ptr, ptr %4, align 8, !tbaa !4
  %12 = getelementptr inbounds nuw %struct.AVFormatContext, ptr %11, i32 0, i32 3
  %13 = load ptr, ptr %12, align 8, !tbaa !29
  store ptr %13, ptr %6, align 8, !tbaa !32
  %14 = load ptr, ptr %5, align 8, !tbaa !30
  %15 = getelementptr inbounds nuw %struct.AVPacket, ptr %14, i32 0, i32 4
  %16 = load i32, ptr %15, align 8, !tbaa !34
  %17 = icmp slt i32 %16, 3
  br i1 %17, label %18, label %19

18:                                               ; preds = %2
  store i32 0, ptr %3, align 4
  store i32 1, ptr %7, align 4
  br label %114

19:                                               ; preds = %2
  %20 = load ptr, ptr %5, align 8, !tbaa !30
  %21 = getelementptr inbounds nuw %struct.AVPacket, ptr %20, i32 0, i32 1
  %22 = load i64, ptr %21, align 8, !tbaa !39
  %23 = load ptr, ptr %6, align 8, !tbaa !32
  %24 = getelementptr inbounds nuw %struct.RCWTContext, ptr %23, i32 0, i32 1
  %25 = load i64, ptr %24, align 8, !tbaa !40
  %26 = icmp ne i64 %22, %25
  br i1 %26, label %27, label %34

27:                                               ; preds = %19
  %28 = load ptr, ptr %4, align 8, !tbaa !4
  call void @rcwt_flush_cluster(ptr noundef %28)
  %29 = load ptr, ptr %5, align 8, !tbaa !30
  %30 = getelementptr inbounds nuw %struct.AVPacket, ptr %29, i32 0, i32 1
  %31 = load i64, ptr %30, align 8, !tbaa !39
  %32 = load ptr, ptr %6, align 8, !tbaa !32
  %33 = getelementptr inbounds nuw %struct.RCWTContext, ptr %32, i32 0, i32 1
  store i64 %31, ptr %33, align 8, !tbaa !40
  br label %34

34:                                               ; preds = %27, %19
  %35 = load ptr, ptr %5, align 8, !tbaa !30
  %36 = getelementptr inbounds nuw %struct.AVPacket, ptr %35, i32 0, i32 1
  %37 = load i64, ptr %36, align 8, !tbaa !39
  %38 = icmp eq i64 %37, -9223372036854775808
  br i1 %38, label %39, label %41

39:                                               ; preds = %34
  %40 = load ptr, ptr %4, align 8, !tbaa !4
  call void (ptr, i32, ptr, ...) @av_log(ptr noundef %40, i32 noundef 24, ptr noundef @.str.2)
  store i32 0, ptr %3, align 4
  store i32 1, ptr %7, align 4
  br label %114

41:                                               ; preds = %34
  call void @llvm.lifetime.start.p0(i64 4, ptr %8) #4
  store i32 0, ptr %8, align 4, !tbaa !42
  br label %42

42:                                               ; preds = %112, %110, %41
  %43 = load i32, ptr %8, align 4, !tbaa !42
  %44 = load ptr, ptr %5, align 8, !tbaa !30
  %45 = getelementptr inbounds nuw %struct.AVPacket, ptr %44, i32 0, i32 4
  %46 = load i32, ptr %45, align 8, !tbaa !34
  %47 = sub nsw i32 %46, 3
  %48 = icmp sle i32 %43, %47
  br i1 %48, label %50, label %49

49:                                               ; preds = %42
  store i32 2, ptr %7, align 4
  call void @llvm.lifetime.end.p0(i64 4, ptr %8) #4
  br label %113

50:                                               ; preds = %42
  call void @llvm.lifetime.start.p0(i64 1, ptr %9) #4
  call void @llvm.lifetime.start.p0(i64 1, ptr %10) #4
  %51 = load ptr, ptr %6, align 8, !tbaa !32
  %52 = getelementptr inbounds nuw %struct.RCWTContext, ptr %51, i32 0, i32 0
  %53 = load i32, ptr %52, align 8, !tbaa !43
  %54 = icmp eq i32 %53, 196605
  br i1 %54, label %55, label %58

55:                                               ; preds = %50
  %56 = load ptr, ptr %4, align 8, !tbaa !4
  call void (ptr, i32, ptr, ...) @av_log(ptr noundef %56, i32 noundef 24, ptr noundef @.str.3)
  %57 = load ptr, ptr %4, align 8, !tbaa !4
  call void @rcwt_flush_cluster(ptr noundef %57)
  br label %58

58:                                               ; preds = %55, %50
  %59 = load ptr, ptr %5, align 8, !tbaa !30
  %60 = getelementptr inbounds nuw %struct.AVPacket, ptr %59, i32 0, i32 3
  %61 = load ptr, ptr %60, align 8, !tbaa !44
  %62 = load i32, ptr %8, align 4, !tbaa !42
  %63 = sext i32 %62 to i64
  %64 = getelementptr inbounds i8, ptr %61, i64 %63
  %65 = load i8, ptr %64, align 1, !tbaa !45
  %66 = zext i8 %65 to i32
  %67 = and i32 %66, 4
  %68 = ashr i32 %67, 2
  %69 = trunc i32 %68 to i8
  store i8 %69, ptr %9, align 1, !tbaa !45
  %70 = load ptr, ptr %5, align 8, !tbaa !30
  %71 = getelementptr inbounds nuw %struct.AVPacket, ptr %70, i32 0, i32 3
  %72 = load ptr, ptr %71, align 8, !tbaa !44
  %73 = load i32, ptr %8, align 4, !tbaa !42
  %74 = sext i32 %73 to i64
  %75 = getelementptr inbounds i8, ptr %72, i64 %74
  %76 = load i8, ptr %75, align 1, !tbaa !45
  %77 = zext i8 %76 to i32
  %78 = and i32 %77, 3
  %79 = trunc i32 %78 to i8
  store i8 %79, ptr %10, align 1, !tbaa !45
  %80 = load i8, ptr %9, align 1, !tbaa !45
  %81 = zext i8 %80 to i32
  %82 = icmp ne i32 %81, 0
  br i1 %82, label %90, label %83

83:                                               ; preds = %58
  %84 = load i8, ptr %10, align 1, !tbaa !45
  %85 = zext i8 %84 to i32
  %86 = icmp eq i32 %85, 3
  br i1 %86, label %90, label %87

87:                                               ; preds = %83
  %88 = load i32, ptr %8, align 4, !tbaa !42
  %89 = add nsw i32 %88, 1
  store i32 %89, ptr %8, align 4, !tbaa !42
  store i32 3, ptr %7, align 4
  br label %110, !llvm.loop !46

90:                                               ; preds = %83, %58
  %91 = load ptr, ptr %6, align 8, !tbaa !32
  %92 = getelementptr inbounds nuw %struct.RCWTContext, ptr %91, i32 0, i32 2
  %93 = load ptr, ptr %6, align 8, !tbaa !32
  %94 = getelementptr inbounds nuw %struct.RCWTContext, ptr %93, i32 0, i32 0
  %95 = load i32, ptr %94, align 8, !tbaa !43
  %96 = sext i32 %95 to i64
  %97 = getelementptr inbounds [196605 x i8], ptr %92, i64 0, i64 %96
  %98 = load ptr, ptr %5, align 8, !tbaa !30
  %99 = getelementptr inbounds nuw %struct.AVPacket, ptr %98, i32 0, i32 3
  %100 = load ptr, ptr %99, align 8, !tbaa !44
  %101 = load i32, ptr %8, align 4, !tbaa !42
  %102 = sext i32 %101 to i64
  %103 = getelementptr inbounds i8, ptr %100, i64 %102
  call void @llvm.memcpy.p0.p0.i64(ptr align 1 %97, ptr align 1 %103, i64 3, i1 false)
  %104 = load ptr, ptr %6, align 8, !tbaa !32
  %105 = getelementptr inbounds nuw %struct.RCWTContext, ptr %104, i32 0, i32 0
  %106 = load i32, ptr %105, align 8, !tbaa !43
  %107 = add nsw i32 %106, 3
  store i32 %107, ptr %105, align 8, !tbaa !43
  %108 = load i32, ptr %8, align 4, !tbaa !42
  %109 = add nsw i32 %108, 3
  store i32 %109, ptr %8, align 4, !tbaa !42
  store i32 0, ptr %7, align 4
  br label %110

110:                                              ; preds = %90, %87
  call void @llvm.lifetime.end.p0(i64 1, ptr %10) #4
  call void @llvm.lifetime.end.p0(i64 1, ptr %9) #4
  %111 = load i32, ptr %7, align 4
  switch i32 %111, label %116 [
    i32 0, label %112
    i32 3, label %42
  ]

112:                                              ; preds = %110
  br label %42, !llvm.loop !46

113:                                              ; preds = %49
  store i32 0, ptr %3, align 4
  store i32 1, ptr %7, align 4
  br label %114

114:                                              ; preds = %113, %39, %18
  call void @llvm.lifetime.end.p0(i64 8, ptr %6) #4
  %115 = load i32, ptr %3, align 4
  ret i32 %115

116:                                              ; preds = %110
  unreachable
}