; Function Attrs: nounwind uwtable
define internal noundef i32 @rcwt_write_packet(ptr noundef %0, ptr noundef readonly captures(none) %1) #0 {
  %3 = getelementptr inbounds nuw i8, ptr %0, i64 24
  %4 = load ptr, ptr %3, align 8, !tbaa !27
  %5 = getelementptr inbounds nuw i8, ptr %1, i64 32
  %6 = load i32, ptr %5, align 8, !tbaa !31
  %7 = icmp slt i32 %6, 3
  br i1 %7, label %.loopexit, label %8

8:                                                ; preds = %2
  %9 = getelementptr inbounds nuw i8, ptr %1, i64 8
  %10 = load i64, ptr %9, align 8, !tbaa !36
  %11 = getelementptr inbounds nuw i8, ptr %4, i64 8
  %12 = load i64, ptr %11, align 8, !tbaa !30
  %.not = icmp eq i64 %10, %12
  br i1 %.not, label %26, label %13

13:                                               ; preds = %8
  %14 = load i32, ptr %4, align 8, !tbaa !28
  %15 = icmp sgt i32 %14, 0
  br i1 %15, label %16, label %rcwt_flush_cluster.exit

16:                                               ; preds = %13
  %17 = getelementptr inbounds nuw i8, ptr %0, i64 32
  %18 = load ptr, ptr %17, align 8, !tbaa !26
  tail call void @avio_wl64(ptr noundef %18, i64 noundef %12) #3
  %19 = load ptr, ptr %17, align 8, !tbaa !26
  %20 = load i32, ptr %4, align 8, !tbaa !28
  %21 = sdiv i32 %20, 3
  tail call void @avio_wl16(ptr noundef %19, i32 noundef %21) #3
  %22 = load ptr, ptr %17, align 8, !tbaa !26
  %23 = getelementptr inbounds nuw i8, ptr %4, i64 16
  %24 = load i32, ptr %4, align 8, !tbaa !28
  tail call void @avio_write(ptr noundef %22, ptr noundef nonnull %23, i32 noundef %24) #3
  %.pre = load i64, ptr %9, align 8, !tbaa !36
  br label %rcwt_flush_cluster.exit

rcwt_flush_cluster.exit:                          ; preds = %13, %16
  %25 = phi i64 [ %10, %13 ], [ %.pre, %16 ]
  store i32 0, ptr %4, align 8, !tbaa !28
  store i64 %25, ptr %11, align 8, !tbaa !30
  br label %26

26:                                               ; preds = %rcwt_flush_cluster.exit, %8
  %27 = phi i64 [ %25, %rcwt_flush_cluster.exit ], [ %10, %8 ]
  %28 = icmp eq i64 %27, -9223372036854775808
  br i1 %28, label %33, label %.preheader

.preheader:                                       ; preds = %26
  %29 = load i32, ptr %5, align 8, !tbaa !31
  %.not3032 = icmp slt i32 %29, 3
  br i1 %.not3032, label %.loopexit, label %.lr.ph

.lr.ph:                                           ; preds = %.preheader
  %30 = getelementptr inbounds nuw i8, ptr %0, i64 32
  %31 = getelementptr inbounds nuw i8, ptr %1, i64 24
  %32 = getelementptr inbounds nuw i8, ptr %4, i64 16
  br label %34

33:                                               ; preds = %26
  tail call void (ptr, i32, ptr, ...) @av_log(ptr noundef nonnull %0, i32 noundef 24, ptr noundef nonnull @.str.2) #3
  br label %.loopexit

34:                                               ; preds = %.lr.ph, %67
  %.02933 = phi i32 [ 0, %.lr.ph ], [ %68, %67 ]
  %35 = load i32, ptr %4, align 8, !tbaa !28
  %36 = icmp eq i32 %35, 196605
  br i1 %36, label %37, label %52

37:                                               ; preds = %34
  tail call void (ptr, i32, ptr, ...) @av_log(ptr noundef %0, i32 noundef 24, ptr noundef nonnull @.str.3) #3
  %38 = load ptr, ptr %3, align 8, !tbaa !27
  %39 = load i32, ptr %38, align 8, !tbaa !28
  %40 = icmp sgt i32 %39, 0
  br i1 %40, label %41, label %rcwt_flush_cluster.exit31

41:                                               ; preds = %37
  %42 = load ptr, ptr %30, align 8, !tbaa !26
  %43 = getelementptr inbounds nuw i8, ptr %38, i64 8
  %44 = load i64, ptr %43, align 8, !tbaa !30
  tail call void @avio_wl64(ptr noundef %42, i64 noundef %44) #3
  %45 = load ptr, ptr %30, align 8, !tbaa !26
  %46 = load i32, ptr %38, align 8, !tbaa !28
  %47 = sdiv i32 %46, 3
  tail call void @avio_wl16(ptr noundef %45, i32 noundef %47) #3
  %48 = load ptr, ptr %30, align 8, !tbaa !26
  %49 = getelementptr inbounds nuw i8, ptr %38, i64 16
  %50 = load i32, ptr %38, align 8, !tbaa !28
  tail call void @avio_write(ptr noundef %48, ptr noundef nonnull %49, i32 noundef %50) #3
  br label %rcwt_flush_cluster.exit31

rcwt_flush_cluster.exit31:                        ; preds = %37, %41
  store i32 0, ptr %38, align 8, !tbaa !28
  %51 = getelementptr inbounds nuw i8, ptr %38, i64 8
  store i64 -9223372036854775808, ptr %51, align 8, !tbaa !30
  br label %52

52:                                               ; preds = %rcwt_flush_cluster.exit31, %34
  %53 = load ptr, ptr %31, align 8, !tbaa !37
  %54 = zext nneg i32 %.02933 to i64
  %55 = getelementptr inbounds nuw i8, ptr %53, i64 %54
  %56 = load i8, ptr %55, align 1, !tbaa !38
  %57 = and i8 %56, 3
  %58 = and i8 %56, 4
  %59 = icmp ne i8 %58, 0
  %60 = icmp eq i8 %57, 3
  %or.cond = or i1 %59, %60
  br i1 %or.cond, label %61, label %67, !llvm.loop !39

61:                                               ; preds = %52
  %62 = load i32, ptr %4, align 8, !tbaa !28
  %63 = sext i32 %62 to i64
  %64 = getelementptr inbounds [196605 x i8], ptr %32, i64 0, i64 %63
  tail call void @llvm.memcpy.p0.p0.i64(ptr noundef nonnull align 1 dereferenceable(3) %64, ptr noundef nonnull align 1 dereferenceable(3) %55, i64 3, i1 false)
  %65 = load i32, ptr %4, align 8, !tbaa !28
  %66 = add nsw i32 %65, 3
  store i32 %66, ptr %4, align 8, !tbaa !28
  br label %67

67:                                               ; preds = %52, %61
  %.sink = phi i32 [ 3, %61 ], [ 1, %52 ]
  %68 = add nuw nsw i32 %.02933, %.sink
  %69 = load i32, ptr %5, align 8, !tbaa !31
  %70 = add nsw i32 %69, -3
  %.not30 = icmp sgt i32 %68, %70
  br i1 %.not30, label %.loopexit, label %34

.loopexit:                                        ; preds = %67, %.preheader, %2, %33
  ret i32 0
}